; ModuleID = '30/428.cpp'
source_filename = "30/428.cpp"
target datalayout = "e-m:e-p270:32:32-p271:32:32-p272:64:64-i64:64-f80:128-n8:16:32:64-S128"
target triple = "x86_64-pc-linux-gnu"

%"class.std::ios_base::Init" = type { i8 }
%"class.std::basic_istream" = type { i32 (...)**, i64, %"class.std::basic_ios" }
%"class.std::basic_ios" = type { %"class.std::ios_base", %"class.std::basic_ostream"*, i8, i8, %"class.std::basic_streambuf"*, %"class.std::ctype"*, %"class.std::num_put"*, %"class.std::num_get"* }
%"class.std::ios_base" = type { i32 (...)**, i64, i64, i32, i32, i32, %"struct.std::ios_base::_Callback_list"*, %"struct.std::ios_base::_Words", [8 x %"struct.std::ios_base::_Words"], i32, %"struct.std::ios_base::_Words"*, %"class.std::locale" }
%"struct.std::ios_base::_Callback_list" = type { %"struct.std::ios_base::_Callback_list"*, void (i32, %"class.std::ios_base"*, i32)*, i32, i32 }
%"struct.std::ios_base::_Words" = type { i8*, i64 }
%"class.std::locale" = type { %"class.std::locale::_Impl"* }
%"class.std::locale::_Impl" = type { i32, %"class.std::locale::facet"**, i64, %"class.std::locale::facet"**, i8** }
%"class.std::locale::facet" = type <{ i32 (...)**, i32, [4 x i8] }>
%"class.std::basic_ostream" = type { i32 (...)**, %"class.std::basic_ios" }
%"class.std::basic_streambuf" = type { i32 (...)**, i8*, i8*, i8*, i8*, i8*, i8*, %"class.std::locale" }
%"class.std::ctype" = type <{ %"class.std::locale::facet.base", [4 x i8], %struct.__locale_struct*, i8, [7 x i8], i32*, i32*, i16*, i8, [256 x i8], [256 x i8], i8, [6 x i8] }>
%"class.std::locale::facet.base" = type <{ i32 (...)**, i32 }>
%struct.__locale_struct = type { [13 x %struct.__locale_data*], i16*, i32*, i32*, [13 x i8*] }
%struct.__locale_data = type opaque
%"class.std::num_put" = type { %"class.std::locale::facet.base", [4 x i8] }
%"class.std::num_get" = type { %"class.std::locale::facet.base", [4 x i8] }

@_ZStL8__ioinit = internal global %"class.std::ios_base::Init" zeroinitializer, align 1
@__dso_handle = external hidden global i8
@_ZSt3cin = external dso_local global %"class.std::basic_istream", align 8
@_ZSt4cout = external dso_local global %"class.std::basic_ostream", align 8
@llvm.global_ctors = appending global [1 x { i32, void ()*, i8* }] [{ i32, void ()*, i8* } { i32 65535, void ()* @_GLOBAL__sub_I_428.cpp, i8* null }]

; Function Attrs: noinline uwtable
define internal void @__cxx_global_var_init() #0 section ".text.startup" {
  call void @_ZNSt8ios_base4InitC1Ev(%"class.std::ios_base::Init"* @_ZStL8__ioinit)
  %1 = call i32 @__cxa_atexit(void (i8*)* bitcast (void (%"class.std::ios_base::Init"*)* @_ZNSt8ios_base4InitD1Ev to void (i8*)*), i8* getelementptr inbounds (%"class.std::ios_base::Init", %"class.std::ios_base::Init"* @_ZStL8__ioinit, i32 0, i32 0), i8* @__dso_handle) #3
  ret void
}

declare dso_local void @_ZNSt8ios_base4InitC1Ev(%"class.std::ios_base::Init"*) unnamed_addr #1

; Function Attrs: nounwind
declare dso_local void @_ZNSt8ios_base4InitD1Ev(%"class.std::ios_base::Init"*) unnamed_addr #2

; Function Attrs: nounwind
declare dso_local i32 @__cxa_atexit(void (i8*)*, i8*, i8*) #3

; Function Attrs: noinline norecurse uwtable
define dso_local i32 @main() #4 {
  %1 = alloca i32, align 4
  %2 = alloca i32, align 4
  %3 = alloca i32, align 4
  %4 = alloca i32, align 4
  %5 = alloca i8*, align 8
  %6 = alloca i64, align 8
  store i32 0, i32* %1, align 4
  store i32 0, i32* %4, align 4
  %7 = call dereferenceable(280) %"class.std::basic_istream"* @_ZNSirsERi(%"class.std::basic_istream"* @_ZSt3cin, i32* dereferenceable(4) %2)
  %8 = load i32, i32* %2, align 4
  %9 = add nsw i32 %8, 1
  %10 = zext i32 %9 to i64
  %11 = call i8* @llvm.stacksave()
  store i8* %11, i8** %5, align 8
  %12 = alloca i32, i64 %10, align 16
  store i64 %10, i64* %6, align 8
  store i32 1, i32* %3, align 4
  br label %13

13:                                               ; preds = %64, %0
  %14 = load i32, i32* %3, align 4
  %15 = load i32, i32* %2, align 4
  %16 = add nsw i32 %15, 1
  %17 = icmp slt i32 %14, %16
  br i1 %17, label %18, label %67

18:                                               ; preds = %13
  %19 = load i32, i32* %3, align 4
  %20 = srem i32 %19, 7
  %21 = icmp eq i32 %20, 0
  br i1 %21, label %52, label %22

22:                                               ; preds = %18
  %23 = load i32, i32* %3, align 4
  %24 = icmp eq i32 %23, 17
  br i1 %24, label %52, label %25

25:                                               ; preds = %22
  %26 = load i32, i32* %3, align 4
  %27 = icmp eq i32 %26, 27
  br i1 %27, label %52, label %28

28:                                               ; preds = %25
  %29 = load i32, i32* %3, align 4
  %30 = icmp eq i32 %29, 37
  br i1 %30, label %52, label %31

31:                                               ; preds = %28
  %32 = load i32, i32* %3, align 4
  %33 = icmp eq i32 %32, 47
  br i1 %33, label %52, label %34

34:                                               ; preds = %31
  %35 = load i32, i32* %3, align 4
  %36 = icmp eq i32 %35, 57
  br i1 %36, label %52, label %37

37:                                               ; preds = %34
  %38 = load i32, i32* %3, align 4
  %39 = icmp eq i32 %38, 67
  br i1 %39, label %52, label %40

40:                                               ; preds = %37
  %41 = load i32, i32* %3, align 4
  %42 = icmp eq i32 %41, 87
  br i1 %42, label %52, label %43

43:                                               ; preds = %40
  %44 = load i32, i32* %3, align 4
  %45 = icmp eq i32 %44, 97
  br i1 %45, label %52, label %46

46:                                               ; preds = %43
  %47 = load i32, i32* %3, align 4
  %48 = icmp sge i32 %47, 70
  br i1 %48, label %49, label %56

49:                                               ; preds = %46
  %50 = load i32, i32* %3, align 4
  %51 = icmp sle i32 %50, 79
  br i1 %51, label %52, label %56

52:                                               ; preds = %49, %43, %40, %37, %34, %31, %28, %25, %22, %18
  %53 = load i32, i32* %3, align 4
  %54 = sext i32 %53 to i64
  %55 = getelementptr inbounds i32, i32* %12, i64 %54
  store i32 0, i32* %55, align 4
  br label %63

56:                                               ; preds = %49, %46
  %57 = load i32, i32* %3, align 4
  %58 = load i32, i32* %3, align 4
  %59 = mul nsw i32 %57, %58
  %60 = load i32, i32* %3, align 4
  %61 = sext i32 %60 to i64
  %62 = getelementptr inbounds i32, i32* %12, i64 %61
  store i32 %59, i32* %62, align 4
  br label %63

63:                                               ; preds = %56, %52
  br label %64

64:                                               ; preds = %63
  %65 = load i32, i32* %3, align 4
  %66 = add nsw i32 %65, 1
  store i32 %66, i32* %3, align 4
  br label %13

67:                                               ; preds = %13
  store i32 1, i32* %3, align 4
  br label %68

68:                                               ; preds = %80, %67
  %69 = load i32, i32* %3, align 4
  %70 = load i32, i32* %2, align 4
  %71 = add nsw i32 %70, 1
  %72 = icmp slt i32 %69, %71
  br i1 %72, label %73, label %83

73:                                               ; preds = %68
  %74 = load i32, i32* %4, align 4
  %75 = load i32, i32* %3, align 4
  %76 = sext i32 %75 to i64
  %77 = getelementptr inbounds i32, i32* %12, i64 %76
  %78 = load i32, i32* %77, align 4
  %79 = add nsw i32 %74, %78
  store i32 %79, i32* %4, align 4
  br label %80

80:                                               ; preds = %73
  %81 = load i32, i32* %3, align 4
  %82 = add nsw i32 %81, 1
  store i32 %82, i32* %3, align 4
  br label %68

83:                                               ; preds = %68
  %84 = load i32, i32* %4, align 4
  %85 = call dereferenceable(272) %"class.std::basic_ostream"* @_ZNSolsEi(%"class.std::basic_ostream"* @_ZSt4cout, i32 %84)
  %86 = call dereferenceable(272) %"class.std::basic_ostream"* @_ZNSolsEPFRSoS_E(%"class.std::basic_ostream"* %85, %"class.std::basic_ostream"* (%"class.std::basic_ostream"*)* @_ZSt4endlIcSt11char_traitsIcEERSt13basic_ostreamIT_T0_ES6_)
  store i32 0, i32* %1, align 4
  %87 = load i8*, i8** %5, align 8
  call void @llvm.stackrestore(i8* %87)
  %88 = load i32, i32* %1, align 4
  ret i32 %88
}

declare dso_local dereferenceable(280) %"class.std::basic_istream"* @_ZNSirsERi(%"class.std::basic_istream"*, i32* dereferenceable(4)) #1

; Function Attrs: nounwind
declare i8* @llvm.stacksave() #3

declare dso_local dereferenceable(272) %"class.std::basic_ostream"* @_ZNSolsEi(%"class.std::basic_ostream"*, i32) #1

declare dso_local dereferenceable(272) %"class.std::basic_ostream"* @_ZNSolsEPFRSoS_E(%"class.std::basic_ostream"*, %"class.std::basic_ostream"* (%"class.std::basic_ostream"*)*) #1

declare dso_local dereferenceable(272) %"class.std::basic_ostream"* @_ZSt4endlIcSt11char_traitsIcEERSt13basic_ostreamIT_T0_ES6_(%"class.std::basic_ostream"* dereferenceable(272)) #1

; Function Attrs: nounwind
declare void @llvm.stackrestore(i8*) #3

; Function Attrs: noinline uwtable
define internal void @_GLOBAL__sub_I_428.cpp() #0 section ".text.startup" {
  call void @__cxx_global_var_init()
  ret void
}


!llvm.module.flags = !{!0}
!llvm.ident = !{!1}

!0 = !{i32 1, !"wchar_size", i32 4}
!1 = !{!"clang version 10.0.0-4ubuntu1 "}
