; ModuleID = 'source-C-CXX/29/428.cpp'
source_filename = "source-C-CXX/29/428.cpp"
target datalayout = "e-m:e-p270:32:32-p271:32:32-p272:64:64-i64:64-f80:128-n8:16:32:64-S128"
target triple = "x86_64-pc-linux-gnu"

%"class.std::ios_base::Init" = type { i8 }
%"class.std::basic_istream" = type { i32 (...)**, i64, %"class.std::basic_ios" }
%"class.std::basic_ios" = type { %"class.std::ios_base", %"class.std::basic_ostream"*, i8, i8, %"class.std::basic_streambuf"*, %"class.std::ctype"*, %"class.std::num_put"*, %"class.std::num_get"* }
%"class.std::ios_base" = type { i32 (...)**, i64, i64, i32, i32, i32, %"struct.std::ios_base::_Callback_list"*, %"struct.std::ios_base::_Words", [8 x %"struct.std::ios_base::_Words"], i32, %"struct.std::ios_base::_Words"*, %"class.std::locale" }
%"struct.std::ios_base::_Callback_list" = type { %"struct.std::ios_base::_Callback_list"*, void (i32, %"class.std::ios_base"*, i32)*, i32, i32 }
%"struct.std::ios_base::_Words" = type { i8*, i64 }
%"class.std::locale" = type { %"class.std::locale::_Impl"* }
%"class.std::locale::_Impl" = type { i32, %"class.std::locale::facet"**, i64, %"class.std::locale::facet"**, i8** }
%"class.std::locale::facet" = type <{ i32 (...)**, i32, [4 x i8] }>
%"class.std::basic_ostream" = type { i32 (...)**, %"class.std::basic_ios" }
%"class.std::basic_streambuf" = type { i32 (...)**, i8*, i8*, i8*, i8*, i8*, i8*, %"class.std::locale" }
%"class.std::ctype" = type <{ %"class.std::locale::facet.base", [4 x i8], %struct.__locale_struct*, i8, [7 x i8], i32*, i32*, i16*, i8, [256 x i8], [256 x i8], i8, [6 x i8] }>
%"class.std::locale::facet.base" = type <{ i32 (...)**, i32 }>
%struct.__locale_struct = type { [13 x %struct.__locale_data*], i16*, i32*, i32*, [13 x i8*] }
%struct.__locale_data = type opaque
%"class.std::num_put" = type { %"class.std::locale::facet.base", [4 x i8] }
%"class.std::num_get" = type { %"class.std::locale::facet.base", [4 x i8] }

@_ZStL8__ioinit = internal global %"class.std::ios_base::Init" zeroinitializer, align 1
@__dso_handle = external hidden global i8
@_ZSt3cin = external global %"class.std::basic_istream", align 8
@_ZSt4cout = external global %"class.std::basic_ostream", align 8
@llvm.global_ctors = appending global [1 x { i32, void ()*, i8* }] [{ i32, void ()*, i8* } { i32 65535, void ()* @_GLOBAL__sub_I_428.cpp, i8* null }]

declare void @_ZNSt8ios_base4InitC1Ev(%"class.std::ios_base::Init"* nonnull align 1 dereferenceable(1)) unnamed_addr #0

; Function Attrs: nounwind
declare void @_ZNSt8ios_base4InitD1Ev(%"class.std::ios_base::Init"* nonnull align 1 dereferenceable(1)) unnamed_addr #1

; Function Attrs: nofree nounwind
declare i32 @__cxa_atexit(void (i8*)*, i8*, i8*) local_unnamed_addr #2

; Function Attrs: mustprogress norecurse sspstrong uwtable
define dso_local i32 @main() local_unnamed_addr #3 {
  %1 = alloca i32, align 4
  %2 = bitcast i32* %1 to i8*
  call void @llvm.lifetime.start.p0i8(i64 4, i8* nonnull %2) #9
  %3 = call nonnull align 8 dereferenceable(16) %"class.std::basic_istream"* @_ZNSirsERi(%"class.std::basic_istream"* nonnull align 8 dereferenceable(16) @_ZSt3cin, i32* nonnull align 4 dereferenceable(4) %1)
  %4 = load i32, i32* %1, align 4, !tbaa !5
  %5 = add nsw i32 %4, 1
  %6 = zext i32 %5 to i64
  %7 = call i8* @llvm.stacksave()
  %8 = alloca i32, i64 %6, align 16
  %9 = load i32, i32* %1, align 4, !tbaa !5
  %10 = icmp slt i32 %9, 1
  br i1 %10, label %145, label %11

11:                                               ; preds = %0
  %12 = add nuw i32 %9, 1
  %13 = zext i32 %12 to i64
  br label %107

14:                                               ; preds = %107
  br i1 %10, label %145, label %15

15:                                               ; preds = %14
  %16 = add nuw i32 %9, 1
  %17 = zext i32 %16 to i64
  %18 = add nsw i64 %13, -1
  %19 = icmp ult i64 %18, 8
  br i1 %19, label %104, label %20

20:                                               ; preds = %15
  %21 = and i64 %18, -8
  %22 = or i64 %21, 1
  %23 = add nsw i64 %21, -8
  %24 = lshr exact i64 %23, 3
  %25 = add nuw nsw i64 %24, 1
  %26 = and i64 %25, 3
  %27 = icmp ult i64 %23, 24
  br i1 %27, label %74, label %28

28:                                               ; preds = %20
  %29 = and i64 %25, 4611686018427387900
  br label %30

30:                                               ; preds = %30, %28
  %31 = phi i64 [ 0, %28 ], [ %71, %30 ]
  %32 = phi <4 x i32> [ zeroinitializer, %28 ], [ %69, %30 ]
  %33 = phi <4 x i32> [ zeroinitializer, %28 ], [ %70, %30 ]
  %34 = phi i64 [ %29, %28 ], [ %72, %30 ]
  %35 = or i64 %31, 1
  %36 = getelementptr inbounds i32, i32* %8, i64 %35
  %37 = bitcast i32* %36 to <4 x i32>*
  %38 = load <4 x i32>, <4 x i32>* %37, align 4, !tbaa !5
  %39 = getelementptr inbounds i32, i32* %36, i64 4
  %40 = bitcast i32* %39 to <4 x i32>*
  %41 = load <4 x i32>, <4 x i32>* %40, align 4, !tbaa !5
  %42 = add <4 x i32> %38, %32
  %43 = add <4 x i32> %41, %33
  %44 = or i64 %31, 9
  %45 = getelementptr inbounds i32, i32* %8, i64 %44
  %46 = bitcast i32* %45 to <4 x i32>*
  %47 = load <4 x i32>, <4 x i32>* %46, align 4, !tbaa !5
  %48 = getelementptr inbounds i32, i32* %45, i64 4
  %49 = bitcast i32* %48 to <4 x i32>*
  %50 = load <4 x i32>, <4 x i32>* %49, align 4, !tbaa !5
  %51 = add <4 x i32> %47, %42
  %52 = add <4 x i32> %50, %43
  %53 = or i64 %31, 17
  %54 = getelementptr inbounds i32, i32* %8, i64 %53
  %55 = bitcast i32* %54 to <4 x i32>*
  %56 = load <4 x i32>, <4 x i32>* %55, align 4, !tbaa !5
  %57 = getelementptr inbounds i32, i32* %54, i64 4
  %58 = bitcast i32* %57 to <4 x i32>*
  %59 = load <4 x i32>, <4 x i32>* %58, align 4, !tbaa !5
  %60 = add <4 x i32> %56, %51
  %61 = add <4 x i32> %59, %52
  %62 = or i64 %31, 25
  %63 = getelementptr inbounds i32, i32* %8, i64 %62
  %64 = bitcast i32* %63 to <4 x i32>*
  %65 = load <4 x i32>, <4 x i32>* %64, align 4, !tbaa !5
  %66 = getelementptr inbounds i32, i32* %63, i64 4
  %67 = bitcast i32* %66 to <4 x i32>*
  %68 = load <4 x i32>, <4 x i32>* %67, align 4, !tbaa !5
  %69 = add <4 x i32> %65, %60
  %70 = add <4 x i32> %68, %61
  %71 = add nuw i64 %31, 32
  %72 = add i64 %34, -4
  %73 = icmp eq i64 %72, 0
  br i1 %73, label %74, label %30, !llvm.loop !9

74:                                               ; preds = %30, %20
  %75 = phi <4 x i32> [ undef, %20 ], [ %69, %30 ]
  %76 = phi <4 x i32> [ undef, %20 ], [ %70, %30 ]
  %77 = phi i64 [ 0, %20 ], [ %71, %30 ]
  %78 = phi <4 x i32> [ zeroinitializer, %20 ], [ %69, %30 ]
  %79 = phi <4 x i32> [ zeroinitializer, %20 ], [ %70, %30 ]
  %80 = icmp eq i64 %26, 0
  br i1 %80, label %98, label %81

81:                                               ; preds = %74, %81
  %82 = phi i64 [ %95, %81 ], [ %77, %74 ]
  %83 = phi <4 x i32> [ %93, %81 ], [ %78, %74 ]
  %84 = phi <4 x i32> [ %94, %81 ], [ %79, %74 ]
  %85 = phi i64 [ %96, %81 ], [ %26, %74 ]
  %86 = or i64 %82, 1
  %87 = getelementptr inbounds i32, i32* %8, i64 %86
  %88 = bitcast i32* %87 to <4 x i32>*
  %89 = load <4 x i32>, <4 x i32>* %88, align 4, !tbaa !5
  %90 = getelementptr inbounds i32, i32* %87, i64 4
  %91 = bitcast i32* %90 to <4 x i32>*
  %92 = load <4 x i32>, <4 x i32>* %91, align 4, !tbaa !5
  %93 = add <4 x i32> %89, %83
  %94 = add <4 x i32> %92, %84
  %95 = add nuw i64 %82, 8
  %96 = add i64 %85, -1
  %97 = icmp eq i64 %96, 0
  br i1 %97, label %98, label %81, !llvm.loop !12

98:                                               ; preds = %81, %74
  %99 = phi <4 x i32> [ %75, %74 ], [ %93, %81 ]
  %100 = phi <4 x i32> [ %76, %74 ], [ %94, %81 ]
  %101 = add <4 x i32> %100, %99
  %102 = call i32 @llvm.vector.reduce.add.v4i32(<4 x i32> %101)
  %103 = icmp eq i64 %18, %21
  br i1 %103, label %145, label %104

104:                                              ; preds = %15, %98
  %105 = phi i64 [ 1, %15 ], [ %22, %98 ]
  %106 = phi i32 [ 0, %15 ], [ %102, %98 ]
  br label %137

107:                                              ; preds = %11, %107
  %108 = phi i64 [ 1, %11 ], [ %135, %107 ]
  %109 = trunc i64 %108 to i32
  %110 = urem i32 %109, 7
  %111 = icmp eq i32 %110, 0
  %112 = icmp eq i64 %108, 17
  %113 = or i1 %112, %111
  %114 = icmp eq i64 %108, 27
  %115 = or i1 %114, %113
  %116 = icmp eq i64 %108, 37
  %117 = or i1 %116, %115
  %118 = icmp eq i64 %108, 47
  %119 = or i1 %118, %117
  %120 = icmp eq i64 %108, 57
  %121 = or i1 %120, %119
  %122 = icmp eq i64 %108, 67
  %123 = or i1 %122, %121
  %124 = icmp eq i64 %108, 87
  %125 = or i1 %124, %123
  %126 = icmp eq i64 %108, 97
  %127 = or i1 %126, %125
  %128 = trunc i64 %108 to i32
  %129 = add i32 %128, -70
  %130 = icmp ult i32 %129, 10
  %131 = select i1 %127, i1 true, i1 %130
  %132 = mul nsw i32 %109, %109
  %133 = select i1 %131, i32 0, i32 %132
  %134 = getelementptr inbounds i32, i32* %8, i64 %108
  store i32 %133, i32* %134, align 4
  %135 = add nuw nsw i64 %108, 1
  %136 = icmp eq i64 %135, %13
  br i1 %136, label %14, label %107, !llvm.loop !14

137:                                              ; preds = %104, %137
  %138 = phi i64 [ %143, %137 ], [ %105, %104 ]
  %139 = phi i32 [ %142, %137 ], [ %106, %104 ]
  %140 = getelementptr inbounds i32, i32* %8, i64 %138
  %141 = load i32, i32* %140, align 4, !tbaa !5
  %142 = add nsw i32 %141, %139
  %143 = add nuw nsw i64 %138, 1
  %144 = icmp eq i64 %143, %17
  br i1 %144, label %145, label %137, !llvm.loop !15

145:                                              ; preds = %137, %98, %0, %14
  %146 = phi i32 [ 0, %14 ], [ 0, %0 ], [ %102, %98 ], [ %142, %137 ]
  %147 = call nonnull align 8 dereferenceable(8) %"class.std::basic_ostream"* @_ZNSolsEi(%"class.std::basic_ostream"* nonnull align 8 dereferenceable(8) @_ZSt4cout, i32 %146)
  %148 = bitcast %"class.std::basic_ostream"* %147 to i8**
  %149 = load i8*, i8** %148, align 8, !tbaa !17
  %150 = getelementptr i8, i8* %149, i64 -24
  %151 = bitcast i8* %150 to i64*
  %152 = load i64, i64* %151, align 8
  %153 = bitcast %"class.std::basic_ostream"* %147 to i8*
  %154 = add nsw i64 %152, 240
  %155 = getelementptr inbounds i8, i8* %153, i64 %154
  %156 = bitcast i8* %155 to %"class.std::ctype"**
  %157 = load %"class.std::ctype"*, %"class.std::ctype"** %156, align 8, !tbaa !19
  %158 = icmp eq %"class.std::ctype"* %157, null
  br i1 %158, label %159, label %160

159:                                              ; preds = %145
  call void @_ZSt16__throw_bad_castv() #10
  unreachable

160:                                              ; preds = %145
  %161 = getelementptr inbounds %"class.std::ctype", %"class.std::ctype"* %157, i64 0, i32 8
  %162 = load i8, i8* %161, align 8, !tbaa !23
  %163 = icmp eq i8 %162, 0
  br i1 %163, label %167, label %164

164:                                              ; preds = %160
  %165 = getelementptr inbounds %"class.std::ctype", %"class.std::ctype"* %157, i64 0, i32 9, i64 10
  %166 = load i8, i8* %165, align 1, !tbaa !25
  br label %173

167:                                              ; preds = %160
  call void @_ZNKSt5ctypeIcE13_M_widen_initEv(%"class.std::ctype"* nonnull align 8 dereferenceable(570) %157)
  %168 = bitcast %"class.std::ctype"* %157 to i8 (%"class.std::ctype"*, i8)***
  %169 = load i8 (%"class.std::ctype"*, i8)**, i8 (%"class.std::ctype"*, i8)*** %168, align 8, !tbaa !17
  %170 = getelementptr inbounds i8 (%"class.std::ctype"*, i8)*, i8 (%"class.std::ctype"*, i8)** %169, i64 6
  %171 = load i8 (%"class.std::ctype"*, i8)*, i8 (%"class.std::ctype"*, i8)** %170, align 8
  %172 = call signext i8 %171(%"class.std::ctype"* nonnull align 8 dereferenceable(570) %157, i8 signext 10)
  br label %173

173:                                              ; preds = %164, %167
  %174 = phi i8 [ %166, %164 ], [ %172, %167 ]
  %175 = call nonnull align 8 dereferenceable(8) %"class.std::basic_ostream"* @_ZNSo3putEc(%"class.std::basic_ostream"* nonnull align 8 dereferenceable(8) %147, i8 signext %174)
  %176 = call nonnull align 8 dereferenceable(8) %"class.std::basic_ostream"* @_ZNSo5flushEv(%"class.std::basic_ostream"* nonnull align 8 dereferenceable(8) %175)
  call void @llvm.stackrestore(i8* %7)
  call void @llvm.lifetime.end.p0i8(i64 4, i8* nonnull %2) #9
  ret i32 0
}

; Function Attrs: argmemonly mustprogress nofree nosync nounwind willreturn
declare void @llvm.lifetime.start.p0i8(i64 immarg, i8* nocapture) #4

declare nonnull align 8 dereferenceable(16) %"class.std::basic_istream"* @_ZNSirsERi(%"class.std::basic_istream"* nonnull align 8 dereferenceable(16), i32* nonnull align 4 dereferenceable(4)) local_unnamed_addr #0

; Function Attrs: mustprogress nofree nosync nounwind willreturn
declare i8* @llvm.stacksave() #5

declare nonnull align 8 dereferenceable(8) %"class.std::basic_ostream"* @_ZNSolsEi(%"class.std::basic_ostream"* nonnull align 8 dereferenceable(8), i32) local_unnamed_addr #0

; Function Attrs: mustprogress nofree nosync nounwind willreturn
declare void @llvm.stackrestore(i8*) #5

; Function Attrs: argmemonly mustprogress nofree nosync nounwind willreturn
declare void @llvm.lifetime.end.p0i8(i64 immarg, i8* nocapture) #4

declare nonnull align 8 dereferenceable(8) %"class.std::basic_ostream"* @_ZNSo3putEc(%"class.std::basic_ostream"* nonnull align 8 dereferenceable(8), i8 signext) local_unnamed_addr #0

declare nonnull align 8 dereferenceable(8) %"class.std::basic_ostream"* @_ZNSo5flushEv(%"class.std::basic_ostream"* nonnull align 8 dereferenceable(8)) local_unnamed_addr #0

; Function Attrs: noreturn
declare void @_ZSt16__throw_bad_castv() local_unnamed_addr #6

declare void @_ZNKSt5ctypeIcE13_M_widen_initEv(%"class.std::ctype"* nonnull align 8 dereferenceable(570)) local_unnamed_addr #0

; Function Attrs: sspstrong uwtable
define internal void @_GLOBAL__sub_I_428.cpp() #7 section ".text.startup" {
  tail call void @_ZNSt8ios_base4InitC1Ev(%"class.std::ios_base::Init"* nonnull align 1 dereferenceable(1) @_ZStL8__ioinit)
  %1 = tail call i32 @__cxa_atexit(void (i8*)* bitcast (void (%"class.std::ios_base::Init"*)* @_ZNSt8ios_base4InitD1Ev to void (i8*)*), i8* getelementptr inbounds (%"class.std::ios_base::Init", %"class.std::ios_base::Init"* @_ZStL8__ioinit, i64 0, i32 0), i8* nonnull @__dso_handle) #9
  ret void
}

; Function Attrs: nofree nosync nounwind readnone willreturn
declare i32 @llvm.vector.reduce.add.v4i32(<4 x i32>) #8


!llvm.module.flags = !{!0, !1, !2, !3}
!llvm.ident = !{!4}

!0 = !{i32 1, !"wchar_size", i32 4}
!1 = !{i32 7, !"PIC Level", i32 2}
!2 = !{i32 7, !"PIE Level", i32 2}
!3 = !{i32 7, !"uwtable", i32 1}
!4 = !{!"clang version 13.0.0"}
!5 = !{!6, !6, i64 0}
!6 = !{!"int", !7, i64 0}
!7 = !{!"omnipotent char", !8, i64 0}
!8 = !{!"Simple C++ TBAA"}
!9 = distinct !{!9, !10, !11}
!10 = !{!"llvm.loop.mustprogress"}
!11 = !{!"llvm.loop.isvectorized", i32 1}
!12 = distinct !{!12, !13}
!13 = !{!"llvm.loop.unroll.disable"}
!14 = distinct !{!14, !10}
!15 = distinct !{!15, !10, !16, !11}
!16 = !{!"llvm.loop.unroll.runtime.disable"}
!17 = !{!18, !18, i64 0}
!18 = !{!"vtable pointer", !8, i64 0}
!19 = !{!20, !21, i64 240}
!20 = !{!"_ZTSSt9basic_iosIcSt11char_traitsIcEE", !21, i64 216, !7, i64 224, !22, i64 225, !21, i64 232, !21, i64 240, !21, i64 248, !21, i64 256}
!21 = !{!"any pointer", !7, i64 0}
!22 = !{!"bool", !7, i64 0}
!23 = !{!24, !7, i64 56}
!24 = !{!"_ZTSSt5ctypeIcE", !21, i64 16, !22, i64 24, !21, i64 32, !21, i64 40, !21, i64 48, !7, i64 56, !7, i64 57, !7, i64 313, !7, i64 569}
!25 = !{!7, !7, i64 0}
